(lp0
VSplit apps out to separate projects & stripped back buildsystem
p1
aVrefactor
p2
aVfix trail url
p3
aVreverse OOIION-1025 fix by jnewbrough
p4
aVAdded steam icon
p5
aVpush to branch master
p6
aVFixed missing parenthesis bug.
p7
aVUpdate basic_var.clj
p8
aVFirst draft of horrible page
p9
aVroot path
p10
aVUpdate whites.txt
p11
aVFixed syntax error
p12
aV"."
p13
aVAdded parameter to skip running NOTICE checks.
p14
aVMaking innocent change for Houston CFUG
p15
aVSplit apps out to separate projects & stripped back buildsystem
p16
aVrefactor
p17
aVfix trail url
p18
aVreverse OOIION-1025 fix by jnewbrough
p19
aVAdded steam icon
p20
aVpush to branch master
p21
aVFixed missing parenthesis bug.
p22
aVUpdate basic_var.clj
p23
aVFirst draft of horrible page
p24
aVroot path
p25
aVUpdate whites.txt
p26
aV"."
p27
aVAdded parameter to skip running NOTICE checks.
p28
aVMaking innocent change for Houston CFUG
p29
aVSplit apps out to separate projects & stripped back buildsystem
p30
aVrefactor
p31
aVfix trail url
p32
aVreverse OOIION-1025 fix by jnewbrough
p33
aVAdded steam icon
p34
aVpush to branch master
p35
aVFixed missing parenthesis bug.
p36
aVUpdate basic_var.clj
p37
aVFirst draft of horrible page
p38
aVroot path
p39
aVUpdate whites.txt
p40
aV"."
p41
aVAdded parameter to skip running NOTICE checks.
p42
aVMaking innocent change for Houston CFUG
p43
aVSplit apps out to separate projects & stripped back buildsystem
p44
aVrefactor
p45
aVfix trail url
p46
aVreverse OOIION-1025 fix by jnewbrough
p47
aVAdded steam icon
p48
aVpush to branch master
p49
aVFixed missing parenthesis bug.
p50
aVUpdate basic_var.clj
p51
aVFirst draft of horrible page
p52
aVroot path
p53
aVUpdate whites.txt
p54
aV"."
p55
aVAdded parameter to skip running NOTICE checks.
p56
aVMaking innocent change for Houston CFUG
p57
aVSplit apps out to separate projects & stripped back buildsystem
p58
aVrefactor
p59
aVfix trail url
p60
aVreverse OOIION-1025 fix by jnewbrough
p61
aVAdded steam icon
p62
aVpush to branch master
p63
aVFixed missing parenthesis bug.
p64
aVUpdate basic_var.clj
p65
aVFirst draft of horrible page
p66
aVroot path
p67
aVUpdate whites.txt
p68
aV"."
p69
aVAdded parameter to skip running NOTICE checks.
p70
aVMaking innocent change for Houston CFUG
p71
aVSplit apps out to separate projects & stripped back buildsystem
p72
aVrefactor
p73
aVfix trail url
p74
aVreverse OOIION-1025 fix by jnewbrough
p75
aVAdded steam icon
p76
aVpush to branch master
p77
aVFixed missing parenthesis bug.
p78
aVUpdate basic_var.clj
p79
aVFirst draft of horrible page
p80
aVroot path
p81
aVUpdate whites.txt
p82
aV"."
p83
aVAdded parameter to skip running NOTICE checks.
p84
aVMaking innocent change for Houston CFUG
p85
aVSplit apps out to separate projects & stripped back buildsystem
p86
aVrefactor
p87
aVfix trail url
p88
aVreverse OOIION-1025 fix by jnewbrough
p89
aVAdded steam icon
p90
aVpush to branch master
p91
aVFixed missing parenthesis bug.
p92
aVUpdate basic_var.clj
p93
aVFirst draft of horrible page
p94
aVroot path
p95
aVUpdate whites.txt
p96
aV"."
p97
aVAdded parameter to skip running NOTICE checks.
p98
aVMaking innocent change for Houston CFUG
p99
aVSplit apps out to separate projects & stripped back buildsystem
p100
aVrefactor
p101
aVfix trail url
p102
aVreverse OOIION-1025 fix by jnewbrough
p103
aVAdded steam icon
p104
aVpush to branch master
p105
aVFixed missing parenthesis bug.
p106
aVUpdate basic_var.clj
p107
aVFirst draft of horrible page
p108
aVroot path
p109
aVUpdate whites.txt
p110
aV"."
p111
aVAdded parameter to skip running NOTICE checks.
p112
aVMaking innocent change for Houston CFUG
p113
aVSplit apps out to separate projects & stripped back buildsystem
p114
aVrefactor
p115
aVfix trail url
p116
aVreverse OOIION-1025 fix by jnewbrough
p117
aVAdded steam icon
p118
aVpush to branch master
p119
aVFixed missing parenthesis bug.
p120
aVUpdate basic_var.clj
p121
aVFirst draft of horrible page
p122
aVroot path
p123
aVUpdate whites.txt
p124
aVminor detail to make before/after code snippet match
p125
aV"."
p126
aVAdded parameter to skip running NOTICE checks.
p127
aVMaking innocent change for Houston CFUG
p128
aVSplit apps out to separate projects & stripped back buildsystem
p129
aVrefactor
p130
aVfix trail url
p131
aVreverse OOIION-1025 fix by jnewbrough
p132
aVAdded steam icon
p133
aVpush to branch master
p134
aVFixed missing parenthesis bug.
p135
aVUpdate basic_var.clj
p136
aVFirst draft of horrible page
p137
aVroot path
p138
aVBug fixeado en formulario5porempresa
p139
aVminor detail to make before/after code snippet match
p140
aV"."
p141
aVAdded parameter to skip running NOTICE checks.
p142
aVMaking innocent change for Houston CFUG
p143
aVSplit apps out to separate projects & stripped back buildsystem
p144
aVrefactor
p145
aVfix trail url
p146
aVreverse OOIION-1025 fix by jnewbrough
p147
aVAdded steam icon
p148
aVpush to branch master
p149
aVFixed missing parenthesis bug.
p150
aVUpdate basic_var.clj
p151
aVFirst draft of horrible page
p152
aVBug fixeado en formulario5porempresa
p153
aVminor detail to make before/after code snippet match
p154
aV"."
p155
aVAdded parameter to skip running NOTICE checks.
p156
aVMaking innocent change for Houston CFUG
p157
aVSplit apps out to separate projects & stripped back buildsystem
p158
aVrefactor
p159
aVfix trail url
p160
aVreverse OOIION-1025 fix by jnewbrough
p161
aVAdded steam icon
p162
aVpush to branch master
p163
aVFixed missing parenthesis bug.
p164
aVUpdate basic_var.clj
p165
aVFirst draft of horrible page
p166
aVrendering using free type. This commit is a work in progress and should NOT be used
p167
aVBug fixeado en formulario5porempresa
p168
aVminor detail to make before/after code snippet match
p169
aV"."
p170
aVAdded parameter to skip running NOTICE checks.
p171
aVMaking innocent change for Houston CFUG
p172
aVSplit apps out to separate projects & stripped back buildsystem
p173
aVrefactor
p174
aVfix trail url
p175
aVreverse OOIION-1025 fix by jnewbrough
p176
aVAdded steam icon
p177
aVpush to branch master
p178
aVFixed missing parenthesis bug.
p179
aVUpdate basic_var.clj
p180
aV1
p181
aVrendering using free type. This commit is a work in progress and should NOT be used
p182
aVBug fixeado en formulario5porempresa
p183
aVminor detail to make before/after code snippet match
p184
aV"."
p185
aVAdded parameter to skip running NOTICE checks.
p186
aVMaking innocent change for Houston CFUG
p187
aVSplit apps out to separate projects & stripped back buildsystem
p188
aVrefactor
p189
aVfix trail url
p190
aVreverse OOIION-1025 fix by jnewbrough
p191
aVAdded steam icon
p192
aVpush to branch master
p193
aVFixed missing parenthesis bug.
p194
aVUpdate basic_var.clj
p195
ag181
aVrendering using free type. This commit is a work in progress and should NOT be used
p196
aVBug fixeado en formulario5porempresa
p197
aVminor detail to make before/after code snippet match
p198
aV"."
p199
aVAdded parameter to skip running NOTICE checks.
p200
aVMaking innocent change for Houston CFUG
p201
aVSplit apps out to separate projects & stripped back buildsystem
p202
aVrefactor
p203
aVfix trail url
p204
aVreverse OOIION-1025 fix by jnewbrough
p205
aVAdded steam icon
p206
aVpush to branch master
p207
aVFixed missing parenthesis bug.
p208
aVUpdate basic_var.clj
p209
aVCreate style.css
p210
ag181
aVrendering using free type. This commit is a work in progress and should NOT be used
p211
aVBug fixeado en formulario5porempresa
p212
aVminor detail to make before/after code snippet match
p213
aV"."
p214
aVAdded parameter to skip running NOTICE checks.
p215
aVMaking innocent change for Houston CFUG
p216
aVSplit apps out to separate projects & stripped back buildsystem
p217
aVrefactor
p218
aVfix trail url
p219
aVreverse OOIION-1025 fix by jnewbrough
p220
aVAdded steam icon
p221
aVpush to branch master
p222
aVFixed missing parenthesis bug.
p223
aVUpdate basic_var.clj
p224
aVCreate style.css
p225
ag181
aVrendering using free type. This commit is a work in progress and should NOT be used
p226
aVBug fixeado en formulario5porempresa
p227
aVminor detail to make before/after code snippet match
p228
aV"."
p229
aVAdded parameter to skip running NOTICE checks.
p230
aVMaking innocent change for Houston CFUG
p231
aVSplit apps out to separate projects & stripped back buildsystem
p232
aVrefactor
p233
aVfix trail url
p234
aVreverse OOIION-1025 fix by jnewbrough
p235
aVAdded steam icon
p236
aVpush to branch master
p237
aVFixed missing parenthesis bug.
p238
aVUpdate basic_var.clj
p239
aVConfigured for use with Travis
p240
aVCreate style.css
p241
ag181
aVrendering using free type. This commit is a work in progress and should NOT be used
p242
aVBug fixeado en formulario5porempresa
p243
aVminor detail to make before/after code snippet match
p244
aV"."
p245
aVAdded parameter to skip running NOTICE checks.
p246
aVMaking innocent change for Houston CFUG
p247
aVSplit apps out to separate projects & stripped back buildsystem
p248
aVrefactor
p249
aVfix trail url
p250
aVreverse OOIION-1025 fix by jnewbrough
p251
aVAdded steam icon
p252
aVpush to branch master
p253
aVFixed missing parenthesis bug.
p254
aVerrors in kafka script
p255
aVConfigured for use with Travis
p256
aVCreate style.css
p257
ag181
aVrendering using free type. This commit is a work in progress and should NOT be used
p258
aVBug fixeado en formulario5porempresa
p259
aVminor detail to make before/after code snippet match
p260
aV"."
p261
aVAdded parameter to skip running NOTICE checks.
p262
aVMaking innocent change for Houston CFUG
p263
aVSplit apps out to separate projects & stripped back buildsystem
p264
aVrefactor
p265
aVfix trail url
p266
aVreverse OOIION-1025 fix by jnewbrough
p267
aVAdded steam icon
p268
aVpush to branch master
p269
aVerrors in kafka script
p270
aVConfigured for use with Travis
p271
aVCreate style.css
p272
ag181
aVrendering using free type. This commit is a work in progress and should NOT be used
p273
aVBug fixeado en formulario5porempresa
p274
aVminor detail to make before/after code snippet match
p275
aV"."
p276
aVAdded parameter to skip running NOTICE checks.
p277
aVMaking innocent change for Houston CFUG
p278
aVSplit apps out to separate projects & stripped back buildsystem
p279
aVrefactor
p280
aVfix trail url
p281
aVreverse OOIION-1025 fix by jnewbrough
p282
aVAdded steam icon
p283
aVerrors in kafka script
p284
aVConfigured for use with Travis
p285
aVCreate style.css
p286
ag181
aVrendering using free type. This commit is a work in progress and should NOT be used
p287
aVBug fixeado en formulario5porempresa
p288
aVminor detail to make before/after code snippet match
p289
aV"."
p290
aVAdded parameter to skip running NOTICE checks.
p291
aVMaking innocent change for Houston CFUG
p292
aVSplit apps out to separate projects & stripped back buildsystem
p293
aVrefactor
p294
aVfix trail url
p295
aVreverse OOIION-1025 fix by jnewbrough
p296
aVAdded steam icon
p297
aVerrors in kafka script
p298
aVConfigured for use with Travis
p299
aVCreate style.css
p300
ag181
aVrendering using free type. This commit is a work in progress and should NOT be used
p301
aVBug fixeado en formulario5porempresa
p302
aVminor detail to make before/after code snippet match
p303
aV"."
p304
aVAdded parameter to skip running NOTICE checks.
p305
aVMaking innocent change for Houston CFUG
p306
aVSplit apps out to separate projects & stripped back buildsystem
p307
aVrefactor
p308
aVfix trail url
p309
aVreverse OOIION-1025 fix by jnewbrough
p310
aVAdded steam icon
p311
aVerrors in kafka script
p312
aVConfigured for use with Travis
p313
aVCreate style.css
p314
ag181
aVrendering using free type. This commit is a work in progress and should NOT be used
p315
aVBug fixeado en formulario5porempresa
p316
aVminor detail to make before/after code snippet match
p317
aV"."
p318
aVAdded parameter to skip running NOTICE checks.
p319
aVMaking innocent change for Houston CFUG
p320
aVSplit apps out to separate projects & stripped back buildsystem
p321
aVrefactor
p322
aVfix trail url
p323
aVreverse OOIION-1025 fix by jnewbrough
p324
aVAdded steam icon
p325
aVUpdate stats for Thu Jul 18 00:31:54 UTC 2013
p326
aVerrors in kafka script
p327
aVConfigured for use with Travis
p328
aVCreate style.css
p329
ag181
aVrendering using free type. This commit is a work in progress and should NOT be used
p330
aVBug fixeado en formulario5porempresa
p331
aVminor detail to make before/after code snippet match
p332
aV"."
p333
aVAdded parameter to skip running NOTICE checks.
p334
aVMaking innocent change for Houston CFUG
p335
aVSplit apps out to separate projects & stripped back buildsystem
p336
aVrefactor
p337
aVfix trail url
p338
aVreverse OOIION-1025 fix by jnewbrough
p339
aVAdded steam icon
p340
aVUpdate stats for Thu Jul 18 00:31:54 UTC 2013
p341
aVerrors in kafka script
p342
aVConfigured for use with Travis
p343
aVCreate style.css
p344
ag181
aVrendering using free type. This commit is a work in progress and should NOT be used
p345
aVBug fixeado en formulario5porempresa
p346
aVminor detail to make before/after code snippet match
p347
aV"."
p348
aVAdded parameter to skip running NOTICE checks.
p349
aVMaking innocent change for Houston CFUG
p350
aVSplit apps out to separate projects & stripped back buildsystem
p351
aVrefactor
p352
aVfix trail url
p353
aVreverse OOIION-1025 fix by jnewbrough
p354
aVAdded steam icon
p355
aVUpdate stats for Thu Jul 18 00:31:54 UTC 2013
p356
aVerrors in kafka script
p357
aVConfigured for use with Travis
p358
aVCreate style.css
p359
ag181
aVrendering using free type. This commit is a work in progress and should NOT be used
p360
aVBug fixeado en formulario5porempresa
p361
aVminor detail to make before/after code snippet match
p362
aV"."
p363
aVAdded parameter to skip running NOTICE checks.
p364
aVMaking innocent change for Houston CFUG
p365
aVSplit apps out to separate projects & stripped back buildsystem
p366
aVrefactor
p367
aVfix trail url
p368
aVreverse OOIION-1025 fix by jnewbrough
p369
aVAdded steam icon
p370
aVresume update
p371
aVUpdate stats for Thu Jul 18 00:31:54 UTC 2013
p372
aVerrors in kafka script
p373
aVConfigured for use with Travis
p374
aVCreate style.css
p375
ag181
aVrendering using free type. This commit is a work in progress and should NOT be used
p376
aVBug fixeado en formulario5porempresa
p377
aVminor detail to make before/after code snippet match
p378
aV"."
p379
aVAdded parameter to skip running NOTICE checks.
p380
aVMaking innocent change for Houston CFUG
p381
aVSplit apps out to separate projects & stripped back buildsystem
p382
aVrefactor
p383
aVfix trail url
p384
aVreverse OOIION-1025 fix by jnewbrough
p385
aVAdded steam icon
p386
aVresume update
p387
aVUpdate stats for Thu Jul 18 00:31:54 UTC 2013
p388
aVerrors in kafka script
p389
aVConfigured for use with Travis
p390
aVCreate style.css
p391
ag181
aVrendering using free type. This commit is a work in progress and should NOT be used
p392
aVBug fixeado en formulario5porempresa
p393
aVminor detail to make before/after code snippet match
p394
aV"."
p395
aVAdded parameter to skip running NOTICE checks.
p396
aVMaking innocent change for Houston CFUG
p397
aVSplit apps out to separate projects & stripped back buildsystem
p398
aVrefactor
p399
aVfix trail url
p400
aVreverse OOIION-1025 fix by jnewbrough
p401
aVAdded steam icon
p402
aVresume update
p403
aVUpdate stats for Thu Jul 18 00:31:54 UTC 2013
p404
aVerrors in kafka script
p405
aVConfigured for use with Travis
p406
aVCreate style.css
p407
ag181
aVrendering using free type. This commit is a work in progress and should NOT be used
p408
aVBug fixeado en formulario5porempresa
p409
aVminor detail to make before/after code snippet match
p410
aV"."
p411
aVAdded parameter to skip running NOTICE checks.
p412
aVMaking innocent change for Houston CFUG
p413
aVSplit apps out to separate projects & stripped back buildsystem
p414
aVrefactor
p415
aVfix trail url
p416
aVreverse OOIION-1025 fix by jnewbrough
p417
aVSearch for javascript (.js) and coffeescript (.coffee) controllers
p418
aVresume update
p419
aVUpdate stats for Thu Jul 18 00:31:54 UTC 2013
p420
aVerrors in kafka script
p421
aVConfigured for use with Travis
p422
aVCreate style.css
p423
ag181
aVrendering using free type. This commit is a work in progress and should NOT be used
p424
aVBug fixeado en formulario5porempresa
p425
aVminor detail to make before/after code snippet match
p426
aV"."
p427
aVAdded parameter to skip running NOTICE checks.
p428
aVMaking innocent change for Houston CFUG
p429
aVSplit apps out to separate projects & stripped back buildsystem
p430
aVrefactor
p431
aVfix trail url
p432
aVreverse OOIION-1025 fix by jnewbrough
p433
aVSearch for javascript (.js) and coffeescript (.coffee) controllers
p434
aVresume update
p435
aVUpdate stats for Thu Jul 18 00:31:54 UTC 2013
p436
aVerrors in kafka script
p437
aVConfigured for use with Travis
p438
aVCreate style.css
p439
ag181
aVrendering using free type. This commit is a work in progress and should NOT be used
p440
aVBug fixeado en formulario5porempresa
p441
aVminor detail to make before/after code snippet match
p442
aV"."
p443
aVAdded parameter to skip running NOTICE checks.
p444
aVMaking innocent change for Houston CFUG
p445
aVSplit apps out to separate projects & stripped back buildsystem
p446
aVrefactor
p447
aVfix trail url
p448
aVreverse OOIION-1025 fix by jnewbrough
p449
aVSearch for javascript (.js) and coffeescript (.coffee) controllers
p450
aVresume update
p451
aVUpdate stats for Thu Jul 18 00:31:54 UTC 2013
p452
aVerrors in kafka script
p453
aVConfigured for use with Travis
p454
aVCreate style.css
p455
ag181
aVrendering using free type. This commit is a work in progress and should NOT be used
p456
aVBug fixeado en formulario5porempresa
p457
aVminor detail to make before/after code snippet match
p458
aV"."
p459
aVAdded parameter to skip running NOTICE checks.
p460
aVMaking innocent change for Houston CFUG
p461
aVSplit apps out to separate projects & stripped back buildsystem
p462
aVrefactor
p463
aVfix trail url
p464
aVreverse OOIION-1025 fix by jnewbrough
p465
aVUpdate cpu_lasso.cpp
p466
aVSearch for javascript (.js) and coffeescript (.coffee) controllers
p467
aVresume update
p468
aVUpdate stats for Thu Jul 18 00:31:54 UTC 2013
p469
aVerrors in kafka script
p470
aVConfigured for use with Travis
p471
aVCreate style.css
p472
ag181
aVrendering using free type. This commit is a work in progress and should NOT be used
p473
aVBug fixeado en formulario5porempresa
p474
aVminor detail to make before/after code snippet match
p475
aV"."
p476
aVAdded parameter to skip running NOTICE checks.
p477
aVMaking innocent change for Houston CFUG
p478
aVSplit apps out to separate projects & stripped back buildsystem
p479
aVrefactor
p480
aVfix trail url
p481
aVAdded test for CreateServiceActivity.
p482
aVUpdate cpu_lasso.cpp
p483
aVSearch for javascript (.js) and coffeescript (.coffee) controllers
p484
aVresume update
p485
aVUpdate stats for Thu Jul 18 00:31:54 UTC 2013
p486
aVerrors in kafka script
p487
aVConfigured for use with Travis
p488
aVCreate style.css
p489
ag181
aVrendering using free type. This commit is a work in progress and should NOT be used
p490
aVBug fixeado en formulario5porempresa
p491
aVminor detail to make before/after code snippet match
p492
aV"."
p493
aVAdded parameter to skip running NOTICE checks.
p494
aVMaking innocent change for Houston CFUG
p495
aVSplit apps out to separate projects & stripped back buildsystem
p496
aVrefactor
p497
aVfix trail url
p498
aVAdded test for CreateServiceActivity.
p499
aVUpdate cpu_lasso.cpp
p500
aVSearch for javascript (.js) and coffeescript (.coffee) controllers
p501
aVresume update
p502
aVUpdate stats for Thu Jul 18 00:31:54 UTC 2013
p503
aVerrors in kafka script
p504
aVConfigured for use with Travis
p505
aVCreate style.css
p506
ag181
aVrendering using free type. This commit is a work in progress and should NOT be used
p507
aVBug fixeado en formulario5porempresa
p508
aVminor detail to make before/after code snippet match
p509
aV"."
p510
aVAdded parameter to skip running NOTICE checks.
p511
aVMaking innocent change for Houston CFUG
p512
aVSplit apps out to separate projects & stripped back buildsystem
p513
aVrefactor
p514
aVfix trail url
p515
aVAdded test for CreateServiceActivity.
p516
aVUpdate cpu_lasso.cpp
p517
aVSearch for javascript (.js) and coffeescript (.coffee) controllers
p518
aVresume update
p519
aVUpdate stats for Thu Jul 18 00:31:54 UTC 2013
p520
aVerrors in kafka script
p521
aVConfigured for use with Travis
p522
aVCreate style.css
p523
ag181
aVrendering using free type. This commit is a work in progress and should NOT be used
p524
aVBug fixeado en formulario5porempresa
p525
aVminor detail to make before/after code snippet match
p526
aV"."
p527
aVAdded parameter to skip running NOTICE checks.
p528
aVMaking innocent change for Houston CFUG
p529
aVSplit apps out to separate projects & stripped back buildsystem
p530
aVrefactor
p531
aVfix trail url
p532
aVAdded test for CreateServiceActivity.
p533
aVUpdate cpu_lasso.cpp
p534
aVSearch for javascript (.js) and coffeescript (.coffee) controllers
p535
aVresume update
p536
aVUpdate stats for Thu Jul 18 00:31:54 UTC 2013
p537
aVerrors in kafka script
p538
aVConfigured for use with Travis
p539
aVCreate style.css
p540
ag181
aVrendering using free type. This commit is a work in progress and should NOT be used
p541
aVBug fixeado en formulario5porempresa
p542
aVminor detail to make before/after code snippet match
p543
aV"."
p544
aVAdded parameter to skip running NOTICE checks.
p545
aVMaking innocent change for Houston CFUG
p546
aVSplit apps out to separate projects & stripped back buildsystem
p547
aVrefactor
p548
aVAdded test for CreateServiceActivity.
p549
aVUpdate cpu_lasso.cpp
p550
aVSearch for javascript (.js) and coffeescript (.coffee) controllers
p551
aVresume update
p552
aVUpdate stats for Thu Jul 18 00:31:54 UTC 2013
p553
aVerrors in kafka script
p554
aVConfigured for use with Travis
p555
aVCreate style.css
p556
ag181
aVrendering using free type. This commit is a work in progress and should NOT be used
p557
aVBug fixeado en formulario5porempresa
p558
aVminor detail to make before/after code snippet match
p559
aV"."
p560
aVAdded parameter to skip running NOTICE checks.
p561
aVMaking innocent change for Houston CFUG
p562
aVSplit apps out to separate projects & stripped back buildsystem
p563
aVrefactor
p564
aVAdded test for CreateServiceActivity.
p565
aVUpdate cpu_lasso.cpp
p566
aVSearch for javascript (.js) and coffeescript (.coffee) controllers
p567
aVresume update
p568
aVUpdate stats for Thu Jul 18 00:31:54 UTC 2013
p569
aVerrors in kafka script
p570
aVConfigured for use with Travis
p571
aVCreate style.css
p572
ag181
aVrendering using free type. This commit is a work in progress and should NOT be used
p573
aVBug fixeado en formulario5porempresa
p574
aVminor detail to make before/after code snippet match
p575
aV"."
p576
aVAdded parameter to skip running NOTICE checks.
p577
aVMaking innocent change for Houston CFUG
p578
aVSplit apps out to separate projects & stripped back buildsystem
p579
aVrefactor
p580
aVTestage.
p581
aVpush to branch master
p582
aVAdded test for CreateServiceActivity.
p583
aVUpdate cpu_lasso.cpp
p584
aVSearch for javascript (.js) and coffeescript (.coffee) controllers
p585
aVresume update
p586
aVUpdate stats for Thu Jul 18 00:31:54 UTC 2013
p587
aVerrors in kafka script
p588
aVConfigured for use with Travis
p589
aVCreate style.css
p590
ag181
aVrendering using free type. This commit is a work in progress and should NOT be used
p591
aVBug fixeado en formulario5porempresa
p592
aVminor detail to make before/after code snippet match
p593
aV"."
p594
aVAdded parameter to skip running NOTICE checks.
p595
aVMaking innocent change for Houston CFUG
p596
aVSplit apps out to separate projects & stripped back buildsystem
p597
aVframeworks/base: support devices with SoftAp that don't require firmware reload\u000a\u000aPartial forward port from ICS.\u000aOriginal Change-Id: If2db6e8ce675c3214ce645231c7a354f41ea0cc6\u000a\u000aChange-Id: Iacb2498ec0f567a0a7c4e0dbf9127b70f09223bd
p598
aVTestage.
p599
aVpush to branch master
p600
aVAdded test for CreateServiceActivity.
p601
aVUpdate cpu_lasso.cpp
p602
aVSearch for javascript (.js) and coffeescript (.coffee) controllers
p603
aVresume update
p604
aVUpdate stats for Thu Jul 18 00:31:54 UTC 2013
p605
aVerrors in kafka script
p606
aVConfigured for use with Travis
p607
aVCreate style.css
p608
ag181
aVrendering using free type. This commit is a work in progress and should NOT be used
p609
aVBug fixeado en formulario5porempresa
p610
aVminor detail to make before/after code snippet match
p611
aV"."
p612
aVAdded parameter to skip running NOTICE checks.
p613
aVMaking innocent change for Houston CFUG
p614
aVSplit apps out to separate projects & stripped back buildsystem
p615
aVframeworks/base: support devices with SoftAp that don't require firmware reload\u000a\u000aPartial forward port from ICS.\u000aOriginal Change-Id: If2db6e8ce675c3214ce645231c7a354f41ea0cc6\u000a\u000aChange-Id: Iacb2498ec0f567a0a7c4e0dbf9127b70f09223bd
p616
aVTestage.
p617
aVpush to branch master
p618
aVAdded test for CreateServiceActivity.
p619
aVUpdate cpu_lasso.cpp
p620
aVSearch for javascript (.js) and coffeescript (.coffee) controllers
p621
aVresume update
p622
aVUpdate stats for Thu Jul 18 00:31:54 UTC 2013
p623
aVerrors in kafka script
p624
aVConfigured for use with Travis
p625
aVCreate style.css
p626
ag181
aVrendering using free type. This commit is a work in progress and should NOT be used
p627
aVBug fixeado en formulario5porempresa
p628
aVminor detail to make before/after code snippet match
p629
aV"."
p630
aVAdded parameter to skip running NOTICE checks.
p631
aVMaking innocent change for Houston CFUG
p632
aVSplit apps out to separate projects & stripped back buildsystem
p633
aVframeworks/base: support devices with SoftAp that don't require firmware reload\u000a\u000aPartial forward port from ICS.\u000aOriginal Change-Id: If2db6e8ce675c3214ce645231c7a354f41ea0cc6\u000a\u000aChange-Id: Iacb2498ec0f567a0a7c4e0dbf9127b70f09223bd
p634
aVTestage.
p635
aVpush to branch master
p636
aVAdded test for CreateServiceActivity.
p637
aVUpdate cpu_lasso.cpp
p638
aVSearch for javascript (.js) and coffeescript (.coffee) controllers
p639
aVresume update
p640
aVUpdate stats for Thu Jul 18 00:31:54 UTC 2013
p641
aVerrors in kafka script
p642
aVConfigured for use with Travis
p643
aVCreate style.css
p644
ag181
aVrendering using free type. This commit is a work in progress and should NOT be used
p645
aVBug fixeado en formulario5porempresa
p646
aVminor detail to make before/after code snippet match
p647
aV"."
p648
aVAdded parameter to skip running NOTICE checks.
p649
aVMaking innocent change for Houston CFUG
p650
aVSplit apps out to separate projects & stripped back buildsystem
p651
aVframeworks/base: support devices with SoftAp that don't require firmware reload\u000a\u000aPartial forward port from ICS.\u000aOriginal Change-Id: If2db6e8ce675c3214ce645231c7a354f41ea0cc6\u000a\u000aChange-Id: Iacb2498ec0f567a0a7c4e0dbf9127b70f09223bd
p652
aVTestage.
p653
aVpush to branch master
p654
aVAdded test for CreateServiceActivity.
p655
aVUpdate cpu_lasso.cpp
p656
aVSearch for javascript (.js) and coffeescript (.coffee) controllers
p657
aVresume update
p658
aVUpdate stats for Thu Jul 18 00:31:54 UTC 2013
p659
aVerrors in kafka script
p660
aVConfigured for use with Travis
p661
aVCreate style.css
p662
ag181
aVrendering using free type. This commit is a work in progress and should NOT be used
p663
aVBug fixeado en formulario5porempresa
p664
aVminor detail to make before/after code snippet match
p665
aV"."
p666
aVAdded parameter to skip running NOTICE checks.
p667
aVMaking innocent change for Houston CFUG
p668
aVSplit apps out to separate projects & stripped back buildsystem
p669
aVRemove for loops and conditions in tests.\u000a\u000aFor loops and if conditions are sub-optimal in tests, for both\u000astability and readability. Removed and replaced with Theory run\u000afeatures.\u000aThough this adds some time to the detailed tests, it's more correct.
p670
aVremoved TODOs
p671
aVframeworks/base: support devices with SoftAp that don't require firmware reload\u000a\u000aPartial forward port from ICS.\u000aOriginal Change-Id: If2db6e8ce675c3214ce645231c7a354f41ea0cc6\u000a\u000aChange-Id: Iacb2498ec0f567a0a7c4e0dbf9127b70f09223bd
p672
aVTestage.
p673
aVpush to branch master
p674
aVAdded test for CreateServiceActivity.
p675
aVUpdate cpu_lasso.cpp
p676
aVSearch for javascript (.js) and coffeescript (.coffee) controllers
p677
aVresume update
p678
aVUpdate stats for Thu Jul 18 00:31:54 UTC 2013
p679
aVerrors in kafka script
p680
aVConfigured for use with Travis
p681
aVCreate style.css
p682
ag181
aVrendering using free type. This commit is a work in progress and should NOT be used
p683
aVBug fixeado en formulario5porempresa
p684
aVminor detail to make before/after code snippet match
p685
aV"."
p686
aVAdded parameter to skip running NOTICE checks.
p687
aVMaking innocent change for Houston CFUG
p688
aVSplit apps out to separate projects & stripped back buildsystem
p689
aVbehavior writer done with getmethods and recursivly getting the code of subclasses
p690
aVRemove for loops and conditions in tests.\u000a\u000aFor loops and if conditions are sub-optimal in tests, for both\u000astability and readability. Removed and replaced with Theory run\u000afeatures.\u000aThough this adds some time to the detailed tests, it's more correct.
p691
aVremoved TODOs
p692
aVframeworks/base: support devices with SoftAp that don't require firmware reload\u000a\u000aPartial forward port from ICS.\u000aOriginal Change-Id: If2db6e8ce675c3214ce645231c7a354f41ea0cc6\u000a\u000aChange-Id: Iacb2498ec0f567a0a7c4e0dbf9127b70f09223bd
p693
aVTestage.
p694
aVpush to branch master
p695
aVAdded test for CreateServiceActivity.
p696
aVUpdate cpu_lasso.cpp
p697
aVSearch for javascript (.js) and coffeescript (.coffee) controllers
p698
aVresume update
p699
aVUpdate stats for Thu Jul 18 00:31:54 UTC 2013
p700
aVerrors in kafka script
p701
aVConfigured for use with Travis
p702
aVCreate style.css
p703
ag181
aVrendering using free type. This commit is a work in progress and should NOT be used
p704
aVBug fixeado en formulario5porempresa
p705
aVminor detail to make before/after code snippet match
p706
aV"."
p707
aVAdded parameter to skip running NOTICE checks.
p708
aVbehavior writer done with getmethods and recursivly getting the code of subclasses
p709
aVRemove for loops and conditions in tests.\u000a\u000aFor loops and if conditions are sub-optimal in tests, for both\u000astability and readability. Removed and replaced with Theory run\u000afeatures.\u000aThough this adds some time to the detailed tests, it's more correct.
p710
aVremoved TODOs
p711
aVframeworks/base: support devices with SoftAp that don't require firmware reload\u000a\u000aPartial forward port from ICS.\u000aOriginal Change-Id: If2db6e8ce675c3214ce645231c7a354f41ea0cc6\u000a\u000aChange-Id: Iacb2498ec0f567a0a7c4e0dbf9127b70f09223bd
p712
aVTestage.
p713
aVpush to branch master
p714
aVAdded test for CreateServiceActivity.
p715
aVUpdate cpu_lasso.cpp
p716
aVSearch for javascript (.js) and coffeescript (.coffee) controllers
p717
aVresume update
p718
aVUpdate stats for Thu Jul 18 00:31:54 UTC 2013
p719
aVerrors in kafka script
p720
aVConfigured for use with Travis
p721
aVCreate style.css
p722
ag181
aVrendering using free type. This commit is a work in progress and should NOT be used
p723
aVBug fixeado en formulario5porempresa
p724
aVminor detail to make before/after code snippet match
p725
aV"."
p726
aVAdded parameter to skip running NOTICE checks.
p727
aVAdded a benchmark file for performance of gen:dict and gen:stream generics.
p728
aVUpdate readme
p729
aVbehavior writer done with getmethods and recursivly getting the code of subclasses
p730
aVRemove for loops and conditions in tests.\u000a\u000aFor loops and if conditions are sub-optimal in tests, for both\u000astability and readability. Removed and replaced with Theory run\u000afeatures.\u000aThough this adds some time to the detailed tests, it's more correct.
p731
aVremoved TODOs
p732
aVframeworks/base: support devices with SoftAp that don't require firmware reload\u000a\u000aPartial forward port from ICS.\u000aOriginal Change-Id: If2db6e8ce675c3214ce645231c7a354f41ea0cc6\u000a\u000aChange-Id: Iacb2498ec0f567a0a7c4e0dbf9127b70f09223bd
p733
aVTestage.
p734
aVpush to branch master
p735
aVAdded test for CreateServiceActivity.
p736
aVUpdate cpu_lasso.cpp
p737
aVSearch for javascript (.js) and coffeescript (.coffee) controllers
p738
aVresume update
p739
aVUpdate stats for Thu Jul 18 00:31:54 UTC 2013
p740
aVerrors in kafka script
p741
aVConfigured for use with Travis
p742
aVCreate style.css
p743
ag181
aVrendering using free type. This commit is a work in progress and should NOT be used
p744
aVBug fixeado en formulario5porempresa
p745
aVminor detail to make before/after code snippet match
p746
aVFixed utterly broken code so I now no longer render faces on chunk boundaries (when they are not needed).
p747
aVAdded a benchmark file for performance of gen:dict and gen:stream generics.
p748
aVUpdate readme
p749
aVbehavior writer done with getmethods and recursivly getting the code of subclasses
p750
aVRemove for loops and conditions in tests.\u000a\u000aFor loops and if conditions are sub-optimal in tests, for both\u000astability and readability. Removed and replaced with Theory run\u000afeatures.\u000aThough this adds some time to the detailed tests, it's more correct.
p751
aVremoved TODOs
p752
aVframeworks/base: support devices with SoftAp that don't require firmware reload\u000a\u000aPartial forward port from ICS.\u000aOriginal Change-Id: If2db6e8ce675c3214ce645231c7a354f41ea0cc6\u000a\u000aChange-Id: Iacb2498ec0f567a0a7c4e0dbf9127b70f09223bd
p753
aVTestage.
p754
aVpush to branch master
p755
aVAdded test for CreateServiceActivity.
p756
aVUpdate cpu_lasso.cpp
p757
aVSearch for javascript (.js) and coffeescript (.coffee) controllers
p758
aVresume update
p759
aVUpdate stats for Thu Jul 18 00:31:54 UTC 2013
p760
aVerrors in kafka script
p761
aVConfigured for use with Travis
p762
aVCreate style.css
p763
ag181
aVrendering using free type. This commit is a work in progress and should NOT be used
p764
aVBug fixeado en formulario5porempresa
p765
aVFixed utterly broken code so I now no longer render faces on chunk boundaries (when they are not needed).
p766
aVAdded a benchmark file for performance of gen:dict and gen:stream generics.
p767
aVUpdate readme
p768
aVbehavior writer done with getmethods and recursivly getting the code of subclasses
p769
aVRemove for loops and conditions in tests.\u000a\u000aFor loops and if conditions are sub-optimal in tests, for both\u000astability and readability. Removed and replaced with Theory run\u000afeatures.\u000aThough this adds some time to the detailed tests, it's more correct.
p770
aVremoved TODOs
p771
aVframeworks/base: support devices with SoftAp that don't require firmware reload\u000a\u000aPartial forward port from ICS.\u000aOriginal Change-Id: If2db6e8ce675c3214ce645231c7a354f41ea0cc6\u000a\u000aChange-Id: Iacb2498ec0f567a0a7c4e0dbf9127b70f09223bd
p772
aVTestage.
p773
aVpush to branch master
p774
aVAdded test for CreateServiceActivity.
p775
aVUpdate cpu_lasso.cpp
p776
aVSearch for javascript (.js) and coffeescript (.coffee) controllers
p777
aVresume update
p778
aVUpdate stats for Thu Jul 18 00:31:54 UTC 2013
p779
aVerrors in kafka script
p780
aVConfigured for use with Travis
p781
aVCreate style.css
p782
ag181
aVrendering using free type. This commit is a work in progress and should NOT be used
p783
aVBug fixeado en formulario5porempresa
p784
aVflopalyzer
p785
aVFixed utterly broken code so I now no longer render faces on chunk boundaries (when they are not needed).
p786
aVAdded a benchmark file for performance of gen:dict and gen:stream generics.
p787
aVUpdate readme
p788
aVbehavior writer done with getmethods and recursivly getting the code of subclasses
p789
aVRemove for loops and conditions in tests.\u000a\u000aFor loops and if conditions are sub-optimal in tests, for both\u000astability and readability. Removed and replaced with Theory run\u000afeatures.\u000aThough this adds some time to the detailed tests, it's more correct.
p790
aVremoved TODOs
p791
aVframeworks/base: support devices with SoftAp that don't require firmware reload\u000a\u000aPartial forward port from ICS.\u000aOriginal Change-Id: If2db6e8ce675c3214ce645231c7a354f41ea0cc6\u000a\u000aChange-Id: Iacb2498ec0f567a0a7c4e0dbf9127b70f09223bd
p792
aVTestage.
p793
aVpush to branch master
p794
aVAdded test for CreateServiceActivity.
p795
aVUpdate cpu_lasso.cpp
p796
aVSearch for javascript (.js) and coffeescript (.coffee) controllers
p797
aVresume update
p798
aVUpdate stats for Thu Jul 18 00:31:54 UTC 2013
p799
aVerrors in kafka script
p800
aVConfigured for use with Travis
p801
aVCreate style.css
p802
ag181
aVrendering using free type. This commit is a work in progress and should NOT be used
p803
aVflopalyzer
p804
aVFixed utterly broken code so I now no longer render faces on chunk boundaries (when they are not needed).
p805
aVAdded a benchmark file for performance of gen:dict and gen:stream generics.
p806
aVUpdate readme
p807
aVbehavior writer done with getmethods and recursivly getting the code of subclasses
p808
aVRemove for loops and conditions in tests.\u000a\u000aFor loops and if conditions are sub-optimal in tests, for both\u000astability and readability. Removed and replaced with Theory run\u000afeatures.\u000aThough this adds some time to the detailed tests, it's more correct.
p809
aVremoved TODOs
p810
aVframeworks/base: support devices with SoftAp that don't require firmware reload\u000a\u000aPartial forward port from ICS.\u000aOriginal Change-Id: If2db6e8ce675c3214ce645231c7a354f41ea0cc6\u000a\u000aChange-Id: Iacb2498ec0f567a0a7c4e0dbf9127b70f09223bd
p811
aVTestage.
p812
aVpush to branch master
p813
aVAdded test for CreateServiceActivity.
p814
aVUpdate cpu_lasso.cpp
p815
aVSearch for javascript (.js) and coffeescript (.coffee) controllers
p816
aVresume update
p817
aVUpdate stats for Thu Jul 18 00:31:54 UTC 2013
p818
aVerrors in kafka script
p819
aVConfigured for use with Travis
p820
aVCreate style.css
p821
ag181
aVrendering using free type. This commit is a work in progress and should NOT be used
p822
aVflopalyzer
p823
aVFixed utterly broken code so I now no longer render faces on chunk boundaries (when they are not needed).
p824
aVAdded a benchmark file for performance of gen:dict and gen:stream generics.
p825
aVUpdate readme
p826
aVbehavior writer done with getmethods and recursivly getting the code of subclasses
p827
aVRemove for loops and conditions in tests.\u000a\u000aFor loops and if conditions are sub-optimal in tests, for both\u000astability and readability. Removed and replaced with Theory run\u000afeatures.\u000aThough this adds some time to the detailed tests, it's more correct.
p828
aVremoved TODOs
p829
aVframeworks/base: support devices with SoftAp that don't require firmware reload\u000a\u000aPartial forward port from ICS.\u000aOriginal Change-Id: If2db6e8ce675c3214ce645231c7a354f41ea0cc6\u000a\u000aChange-Id: Iacb2498ec0f567a0a7c4e0dbf9127b70f09223bd
p830
aVTestage.
p831
aVpush to branch master
p832
aVAdded test for CreateServiceActivity.
p833
aVUpdate cpu_lasso.cpp
p834
aVSearch for javascript (.js) and coffeescript (.coffee) controllers
p835
aVresume update
p836
aVUpdate stats for Thu Jul 18 00:31:54 UTC 2013
p837
aVerrors in kafka script
p838
aVConfigured for use with Travis
p839
aVCreate style.css
p840
ag181
aVrendering using free type. This commit is a work in progress and should NOT be used
p841
aVflopalyzer
p842
aVFixed utterly broken code so I now no longer render faces on chunk boundaries (when they are not needed).
p843
aVAdded a benchmark file for performance of gen:dict and gen:stream generics.
p844
aVUpdate readme
p845
aVbehavior writer done with getmethods and recursivly getting the code of subclasses
p846
aVRemove for loops and conditions in tests.\u000a\u000aFor loops and if conditions are sub-optimal in tests, for both\u000astability and readability. Removed and replaced with Theory run\u000afeatures.\u000aThough this adds some time to the detailed tests, it's more correct.
p847
aVremoved TODOs
p848
aVframeworks/base: support devices with SoftAp that don't require firmware reload\u000a\u000aPartial forward port from ICS.\u000aOriginal Change-Id: If2db6e8ce675c3214ce645231c7a354f41ea0cc6\u000a\u000aChange-Id: Iacb2498ec0f567a0a7c4e0dbf9127b70f09223bd
p849
aVTestage.
p850
aVpush to branch master
p851
aVAdded test for CreateServiceActivity.
p852
aVUpdate cpu_lasso.cpp
p853
aVSearch for javascript (.js) and coffeescript (.coffee) controllers
p854
aVresume update
p855
aVUpdate stats for Thu Jul 18 00:31:54 UTC 2013
p856
aVerrors in kafka script
p857
aVConfigured for use with Travis
p858
aVCreate style.css
p859
ag181
aVrendering using free type. This commit is a work in progress and should NOT be used
p860
aVflopalyzer
p861
aVFixed utterly broken code so I now no longer render faces on chunk boundaries (when they are not needed).
p862
aVAdded a benchmark file for performance of gen:dict and gen:stream generics.
p863
aVUpdate readme
p864
aVbehavior writer done with getmethods and recursivly getting the code of subclasses
p865
aVRemove for loops and conditions in tests.\u000a\u000aFor loops and if conditions are sub-optimal in tests, for both\u000astability and readability. Removed and replaced with Theory run\u000afeatures.\u000aThough this adds some time to the detailed tests, it's more correct.
p866
aVremoved TODOs
p867
aVframeworks/base: support devices with SoftAp that don't require firmware reload\u000a\u000aPartial forward port from ICS.\u000aOriginal Change-Id: If2db6e8ce675c3214ce645231c7a354f41ea0cc6\u000a\u000aChange-Id: Iacb2498ec0f567a0a7c4e0dbf9127b70f09223bd
p868
aVTestage.
p869
aVpush to branch master
p870
aVAdded test for CreateServiceActivity.
p871
aVUpdate cpu_lasso.cpp
p872
aVSearch for javascript (.js) and coffeescript (.coffee) controllers
p873
aVresume update
p874
aVUpdate stats for Thu Jul 18 00:31:54 UTC 2013
p875
aVerrors in kafka script
p876
aVConfigured for use with Travis
p877
aVCreate style.css
p878
ag181
aVrendering using free type. This commit is a work in progress and should NOT be used
p879
aVflopalyzer
p880
aVFixed utterly broken code so I now no longer render faces on chunk boundaries (when they are not needed).
p881
aVAdded a benchmark file for performance of gen:dict and gen:stream generics.
p882
aVUpdate readme
p883
aVbehavior writer done with getmethods and recursivly getting the code of subclasses
p884
aVRemove for loops and conditions in tests.\u000a\u000aFor loops and if conditions are sub-optimal in tests, for both\u000astability and readability. Removed and replaced with Theory run\u000afeatures.\u000aThough this adds some time to the detailed tests, it's more correct.
p885
aVremoved TODOs
p886
aVframeworks/base: support devices with SoftAp that don't require firmware reload\u000a\u000aPartial forward port from ICS.\u000aOriginal Change-Id: If2db6e8ce675c3214ce645231c7a354f41ea0cc6\u000a\u000aChange-Id: Iacb2498ec0f567a0a7c4e0dbf9127b70f09223bd
p887
aVTestage.
p888
aVpush to branch master
p889
aVAdded test for CreateServiceActivity.
p890
aVUpdate cpu_lasso.cpp
p891
aVSearch for javascript (.js) and coffeescript (.coffee) controllers
p892
aVresume update
p893
aVUpdate stats for Thu Jul 18 00:31:54 UTC 2013
p894
aVerrors in kafka script
p895
aVConfigured for use with Travis
p896
aVCreate style.css
p897
ag181
aVrendering using free type. This commit is a work in progress and should NOT be used
p898
aVTesting ItemLabelController.java
p899
aVSetting stuff up
p900
aVflopalyzer
p901
aVFixed utterly broken code so I now no longer render faces on chunk boundaries (when they are not needed).
p902
aVAdded a benchmark file for performance of gen:dict and gen:stream generics.
p903
aVUpdate readme
p904
aVbehavior writer done with getmethods and recursivly getting the code of subclasses
p905
aVRemove for loops and conditions in tests.\u000a\u000aFor loops and if conditions are sub-optimal in tests, for both\u000astability and readability. Removed and replaced with Theory run\u000afeatures.\u000aThough this adds some time to the detailed tests, it's more correct.
p906
aVremoved TODOs
p907
aVframeworks/base: support devices with SoftAp that don't require firmware reload\u000a\u000aPartial forward port from ICS.\u000aOriginal Change-Id: If2db6e8ce675c3214ce645231c7a354f41ea0cc6\u000a\u000aChange-Id: Iacb2498ec0f567a0a7c4e0dbf9127b70f09223bd
p908
aVTestage.
p909
aVpush to branch master
p910
aVAdded test for CreateServiceActivity.
p911
aVUpdate cpu_lasso.cpp
p912
aVSearch for javascript (.js) and coffeescript (.coffee) controllers
p913
aVresume update
p914
aVUpdate stats for Thu Jul 18 00:31:54 UTC 2013
p915
aVerrors in kafka script
p916
aVConfigured for use with Travis
p917
aVCreate style.css
p918
aVEdited some stuff, figured other stuff out
p919
aVcon xml
p920
aVAdded plugin for video embedding. Also post about the PD 1.1.0 update & PAX sale.
p921
aVA lot of code changes
p922
aVTesting ItemLabelController.java
p923
aVSetting stuff up
p924
aVflopalyzer
p925
aVFixed utterly broken code so I now no longer render faces on chunk boundaries (when they are not needed).
p926
aVAdded a benchmark file for performance of gen:dict and gen:stream generics.
p927
aVUpdate readme
p928
aVbehavior writer done with getmethods and recursivly getting the code of subclasses
p929
aVRemove for loops and conditions in tests.\u000a\u000aFor loops and if conditions are sub-optimal in tests, for both\u000astability and readability. Removed and replaced with Theory run\u000afeatures.\u000aThough this adds some time to the detailed tests, it's more correct.
p930
aVremoved TODOs
p931
aVframeworks/base: support devices with SoftAp that don't require firmware reload\u000a\u000aPartial forward port from ICS.\u000aOriginal Change-Id: If2db6e8ce675c3214ce645231c7a354f41ea0cc6\u000a\u000aChange-Id: Iacb2498ec0f567a0a7c4e0dbf9127b70f09223bd
p932
aVTestage.
p933
aVpush to branch master
p934
aVAdded test for CreateServiceActivity.
p935
aVUpdate cpu_lasso.cpp
p936
aVSearch for javascript (.js) and coffeescript (.coffee) controllers
p937
aVresume update
p938
aVEdited some stuff, figured other stuff out
p939
aVcon xml
p940
aVAdded plugin for video embedding. Also post about the PD 1.1.0 update & PAX sale.
p941
aVA lot of code changes
p942
aVTesting ItemLabelController.java
p943
aVSetting stuff up
p944
aVflopalyzer
p945
aVFixed utterly broken code so I now no longer render faces on chunk boundaries (when they are not needed).
p946
aVAdded a benchmark file for performance of gen:dict and gen:stream generics.
p947
aVUpdate readme
p948
aVbehavior writer done with getmethods and recursivly getting the code of subclasses
p949
aVRemove for loops and conditions in tests.\u000a\u000aFor loops and if conditions are sub-optimal in tests, for both\u000astability and readability. Removed and replaced with Theory run\u000afeatures.\u000aThough this adds some time to the detailed tests, it's more correct.
p950
aVremoved TODOs
p951
aVframeworks/base: support devices with SoftAp that don't require firmware reload\u000a\u000aPartial forward port from ICS.\u000aOriginal Change-Id: If2db6e8ce675c3214ce645231c7a354f41ea0cc6\u000a\u000aChange-Id: Iacb2498ec0f567a0a7c4e0dbf9127b70f09223bd
p952
aVTestage.
p953
aVpush to branch master
p954
aVAdded test for CreateServiceActivity.
p955
aVUpdate cpu_lasso.cpp
p956
aVSearch for javascript (.js) and coffeescript (.coffee) controllers
p957
aVEdited some stuff, figured other stuff out
p958
aVcon xml
p959
aVAdded plugin for video embedding. Also post about the PD 1.1.0 update & PAX sale.
p960
aVA lot of code changes
p961
aVTesting ItemLabelController.java
p962
aVSetting stuff up
p963
aVflopalyzer
p964
aVFixed utterly broken code so I now no longer render faces on chunk boundaries (when they are not needed).
p965
aVAdded a benchmark file for performance of gen:dict and gen:stream generics.
p966
aVUpdate readme
p967
aVbehavior writer done with getmethods and recursivly getting the code of subclasses
p968
aVRemove for loops and conditions in tests.\u000a\u000aFor loops and if conditions are sub-optimal in tests, for both\u000astability and readability. Removed and replaced with Theory run\u000afeatures.\u000aThough this adds some time to the detailed tests, it's more correct.
p969
aVremoved TODOs
p970
aVframeworks/base: support devices with SoftAp that don't require firmware reload\u000a\u000aPartial forward port from ICS.\u000aOriginal Change-Id: If2db6e8ce675c3214ce645231c7a354f41ea0cc6\u000a\u000aChange-Id: Iacb2498ec0f567a0a7c4e0dbf9127b70f09223bd
p971
aVTestage.
p972
aVpush to branch master
p973
aVAdded test for CreateServiceActivity.
p974
aVRBTree: simplified isBalanced
p975
aVEdited some stuff, figured other stuff out
p976
aVcon xml
p977
aVAdded plugin for video embedding. Also post about the PD 1.1.0 update & PAX sale.
p978
aVA lot of code changes
p979
aVTesting ItemLabelController.java
p980
aVSetting stuff up
p981
aVflopalyzer
p982
aVFixed utterly broken code so I now no longer render faces on chunk boundaries (when they are not needed).
p983
aVAdded a benchmark file for performance of gen:dict and gen:stream generics.
p984
aVUpdate readme
p985
aVbehavior writer done with getmethods and recursivly getting the code of subclasses
p986
aVRemove for loops and conditions in tests.\u000a\u000aFor loops and if conditions are sub-optimal in tests, for both\u000astability and readability. Removed and replaced with Theory run\u000afeatures.\u000aThough this adds some time to the detailed tests, it's more correct.
p987
aVremoved TODOs
p988
aVframeworks/base: support devices with SoftAp that don't require firmware reload\u000a\u000aPartial forward port from ICS.\u000aOriginal Change-Id: If2db6e8ce675c3214ce645231c7a354f41ea0cc6\u000a\u000aChange-Id: Iacb2498ec0f567a0a7c4e0dbf9127b70f09223bd
p989
aVTestage.
p990
aVpush to branch master
p991
aVRBTree: simplified isBalanced
p992
aVEdited some stuff, figured other stuff out
p993
aVcon xml
p994
aVAdded plugin for video embedding. Also post about the PD 1.1.0 update & PAX sale.
p995
aVA lot of code changes
p996
aVTesting ItemLabelController.java
p997
aVSetting stuff up
p998
aVflopalyzer
p999
aVFixed utterly broken code so I now no longer render faces on chunk boundaries (when they are not needed).
p1000
aVAdded a benchmark file for performance of gen:dict and gen:stream generics.
p1001
aVUpdate readme
p1002
aVbehavior writer done with getmethods and recursivly getting the code of subclasses
p1003
aVRemove for loops and conditions in tests.\u000a\u000aFor loops and if conditions are sub-optimal in tests, for both\u000astability and readability. Removed and replaced with Theory run\u000afeatures.\u000aThough this adds some time to the detailed tests, it's more correct.
p1004
aVremoved TODOs
p1005
aVframeworks/base: support devices with SoftAp that don't require firmware reload\u000a\u000aPartial forward port from ICS.\u000aOriginal Change-Id: If2db6e8ce675c3214ce645231c7a354f41ea0cc6\u000a\u000aChange-Id: Iacb2498ec0f567a0a7c4e0dbf9127b70f09223bd
p1006
aVTestage.
p1007
aVpush to branch master
p1008
aVRBTree: simplified isBalanced
p1009
aVEdited some stuff, figured other stuff out
p1010
aVcon xml
p1011
aVAdded plugin for video embedding. Also post about the PD 1.1.0 update & PAX sale.
p1012
aVA lot of code changes
p1013
aVTesting ItemLabelController.java
p1014
aVSetting stuff up
p1015
aVflopalyzer
p1016
aVFixed utterly broken code so I now no longer render faces on chunk boundaries (when they are not needed).
p1017
aVAdded a benchmark file for performance of gen:dict and gen:stream generics.
p1018
aVUpdate readme
p1019
aVbehavior writer done with getmethods and recursivly getting the code of subclasses
p1020
aVRemove for loops and conditions in tests.\u000a\u000aFor loops and if conditions are sub-optimal in tests, for both\u000astability and readability. Removed and replaced with Theory run\u000afeatures.\u000aThough this adds some time to the detailed tests, it's more correct.
p1021
aVremoved TODOs
p1022
aVframeworks/base: support devices with SoftAp that don't require firmware reload\u000a\u000aPartial forward port from ICS.\u000aOriginal Change-Id: If2db6e8ce675c3214ce645231c7a354f41ea0cc6\u000a\u000aChange-Id: Iacb2498ec0f567a0a7c4e0dbf9127b70f09223bd
p1023
aVTestage.
p1024
aVpush to branch master
p1025
aVRBTree: simplified isBalanced
p1026
aVEdited some stuff, figured other stuff out
p1027
aVcon xml
p1028
aVAdded plugin for video embedding. Also post about the PD 1.1.0 update & PAX sale.
p1029
aVA lot of code changes
p1030
aVTesting ItemLabelController.java
p1031
aVSetting stuff up
p1032
aVflopalyzer
p1033
aVFixed utterly broken code so I now no longer render faces on chunk boundaries (when they are not needed).
p1034
aVAdded a benchmark file for performance of gen:dict and gen:stream generics.
p1035
aVUpdate readme
p1036
aVbehavior writer done with getmethods and recursivly getting the code of subclasses
p1037
aVRemove for loops and conditions in tests.\u000a\u000aFor loops and if conditions are sub-optimal in tests, for both\u000astability and readability. Removed and replaced with Theory run\u000afeatures.\u000aThough this adds some time to the detailed tests, it's more correct.
p1038
aVremoved TODOs
p1039
aVframeworks/base: support devices with SoftAp that don't require firmware reload\u000a\u000aPartial forward port from ICS.\u000aOriginal Change-Id: If2db6e8ce675c3214ce645231c7a354f41ea0cc6\u000a\u000aChange-Id: Iacb2498ec0f567a0a7c4e0dbf9127b70f09223bd
p1040
aVTestage.
p1041
aVpush to branch master
p1042
aVRBTree: simplified isBalanced
p1043
aVEdited some stuff, figured other stuff out
p1044
aVcon xml
p1045
aVAdded plugin for video embedding. Also post about the PD 1.1.0 update & PAX sale.
p1046
aVA lot of code changes
p1047
aVTesting ItemLabelController.java
p1048
aVSetting stuff up
p1049
aVflopalyzer
p1050
aVFixed utterly broken code so I now no longer render faces on chunk boundaries (when they are not needed).
p1051
aVAdded a benchmark file for performance of gen:dict and gen:stream generics.
p1052
aVUpdate readme
p1053
aVbehavior writer done with getmethods and recursivly getting the code of subclasses
p1054
aVRemove for loops and conditions in tests.\u000a\u000aFor loops and if conditions are sub-optimal in tests, for both\u000astability and readability. Removed and replaced with Theory run\u000afeatures.\u000aThough this adds some time to the detailed tests, it's more correct.
p1055
aVremoved TODOs
p1056
aVframeworks/base: support devices with SoftAp that don't require firmware reload\u000a\u000aPartial forward port from ICS.\u000aOriginal Change-Id: If2db6e8ce675c3214ce645231c7a354f41ea0cc6\u000a\u000aChange-Id: Iacb2498ec0f567a0a7c4e0dbf9127b70f09223bd
p1057
aVTestage.
p1058
aVpush to branch master
p1059
aVupdate
p1060
aVMoved feature config from config.mk to config.def.h.
p1061
aVRBTree: simplified isBalanced
p1062
aVEdited some stuff, figured other stuff out
p1063
aVcon xml
p1064
aVAdded plugin for video embedding. Also post about the PD 1.1.0 update & PAX sale.
p1065
aVA lot of code changes
p1066
aVTesting ItemLabelController.java
p1067
aVSetting stuff up
p1068
aVflopalyzer
p1069
aVFixed utterly broken code so I now no longer render faces on chunk boundaries (when they are not needed).
p1070
aVAdded a benchmark file for performance of gen:dict and gen:stream generics.
p1071
aVUpdate readme
p1072
aVbehavior writer done with getmethods and recursivly getting the code of subclasses
p1073
aVRemove for loops and conditions in tests.\u000a\u000aFor loops and if conditions are sub-optimal in tests, for both\u000astability and readability. Removed and replaced with Theory run\u000afeatures.\u000aThough this adds some time to the detailed tests, it's more correct.
p1074
aVremoved TODOs
p1075
aVframeworks/base: support devices with SoftAp that don't require firmware reload\u000a\u000aPartial forward port from ICS.\u000aOriginal Change-Id: If2db6e8ce675c3214ce645231c7a354f41ea0cc6\u000a\u000aChange-Id: Iacb2498ec0f567a0a7c4e0dbf9127b70f09223bd
p1076
aVTestage.
p1077
aVupdate
p1078
aVMoved feature config from config.mk to config.def.h.
p1079
aVRBTree: simplified isBalanced
p1080
aVEdited some stuff, figured other stuff out
p1081
aVcon xml
p1082
aVAdded plugin for video embedding. Also post about the PD 1.1.0 update & PAX sale.
p1083
aVA lot of code changes
p1084
aVTesting ItemLabelController.java
p1085
aVSetting stuff up
p1086
aVflopalyzer
p1087
aVFixed utterly broken code so I now no longer render faces on chunk boundaries (when they are not needed).
p1088
aVAdded a benchmark file for performance of gen:dict and gen:stream generics.
p1089
aVUpdate readme
p1090
aVbehavior writer done with getmethods and recursivly getting the code of subclasses
p1091
aVRemove for loops and conditions in tests.\u000a\u000aFor loops and if conditions are sub-optimal in tests, for both\u000astability and readability. Removed and replaced with Theory run\u000afeatures.\u000aThough this adds some time to the detailed tests, it's more correct.
p1092
aVremoved TODOs
p1093
aVframeworks/base: support devices with SoftAp that don't require firmware reload\u000a\u000aPartial forward port from ICS.\u000aOriginal Change-Id: If2db6e8ce675c3214ce645231c7a354f41ea0cc6\u000a\u000aChange-Id: Iacb2498ec0f567a0a7c4e0dbf9127b70f09223bd
p1094
aVTestage.
p1095
aVupdate
p1096
aVMoved feature config from config.mk to config.def.h.
p1097
aVRBTree: simplified isBalanced
p1098
aVEdited some stuff, figured other stuff out
p1099
aVcon xml
p1100
aVAdded plugin for video embedding. Also post about the PD 1.1.0 update & PAX sale.
p1101
aVA lot of code changes
p1102
aVTesting ItemLabelController.java
p1103
aVSetting stuff up
p1104
aVflopalyzer
p1105
aVFixed utterly broken code so I now no longer render faces on chunk boundaries (when they are not needed).
p1106
aVAdded a benchmark file for performance of gen:dict and gen:stream generics.
p1107
aVUpdate readme
p1108
aVbehavior writer done with getmethods and recursivly getting the code of subclasses
p1109
aVRemove for loops and conditions in tests.\u000a\u000aFor loops and if conditions are sub-optimal in tests, for both\u000astability and readability. Removed and replaced with Theory run\u000afeatures.\u000aThough this adds some time to the detailed tests, it's more correct.
p1110
aVremoved TODOs
p1111
aVframeworks/base: support devices with SoftAp that don't require firmware reload\u000a\u000aPartial forward port from ICS.\u000aOriginal Change-Id: If2db6e8ce675c3214ce645231c7a354f41ea0cc6\u000a\u000aChange-Id: Iacb2498ec0f567a0a7c4e0dbf9127b70f09223bd
p1112
aVTestage.
p1113
aVMaking issue titles more friendly
p1114
aVupdate
p1115
aVMoved feature config from config.mk to config.def.h.
p1116
aVRBTree: simplified isBalanced
p1117
aVEdited some stuff, figured other stuff out
p1118
aVcon xml
p1119
aVAdded plugin for video embedding. Also post about the PD 1.1.0 update & PAX sale.
p1120
aVA lot of code changes
p1121
aVTesting ItemLabelController.java
p1122
aVSetting stuff up
p1123
aVflopalyzer
p1124
aVFixed utterly broken code so I now no longer render faces on chunk boundaries (when they are not needed).
p1125
aVAdded a benchmark file for performance of gen:dict and gen:stream generics.
p1126
aVUpdate readme
p1127
aVbehavior writer done with getmethods and recursivly getting the code of subclasses
p1128
aVRemove for loops and conditions in tests.\u000a\u000aFor loops and if conditions are sub-optimal in tests, for both\u000astability and readability. Removed and replaced with Theory run\u000afeatures.\u000aThough this adds some time to the detailed tests, it's more correct.
p1129
aVremoved TODOs
p1130
aVframeworks/base: support devices with SoftAp that don't require firmware reload\u000a\u000aPartial forward port from ICS.\u000aOriginal Change-Id: If2db6e8ce675c3214ce645231c7a354f41ea0cc6\u000a\u000aChange-Id: Iacb2498ec0f567a0a7c4e0dbf9127b70f09223bd
p1131
aVMaking issue titles more friendly
p1132
aVupdate
p1133
aVMoved feature config from config.mk to config.def.h.
p1134
aVRBTree: simplified isBalanced
p1135
aVEdited some stuff, figured other stuff out
p1136
aVcon xml
p1137
aVAdded plugin for video embedding. Also post about the PD 1.1.0 update & PAX sale.
p1138
aVA lot of code changes
p1139
aVTesting ItemLabelController.java
p1140
aVSetting stuff up
p1141
aVflopalyzer
p1142
aVFixed utterly broken code so I now no longer render faces on chunk boundaries (when they are not needed).
p1143
aVAdded a benchmark file for performance of gen:dict and gen:stream generics.
p1144
aVUpdate readme
p1145
aVbehavior writer done with getmethods and recursivly getting the code of subclasses
p1146
aVRemove for loops and conditions in tests.\u000a\u000aFor loops and if conditions are sub-optimal in tests, for both\u000astability and readability. Removed and replaced with Theory run\u000afeatures.\u000aThough this adds some time to the detailed tests, it's more correct.
p1147
aVremoved TODOs
p1148
aVframeworks/base: support devices with SoftAp that don't require firmware reload\u000a\u000aPartial forward port from ICS.\u000aOriginal Change-Id: If2db6e8ce675c3214ce645231c7a354f41ea0cc6\u000a\u000aChange-Id: Iacb2498ec0f567a0a7c4e0dbf9127b70f09223bd
p1149
aVMaking issue titles more friendly
p1150
aVupdate
p1151
aVMoved feature config from config.mk to config.def.h.
p1152
aVRBTree: simplified isBalanced
p1153
aVEdited some stuff, figured other stuff out
p1154
aVcon xml
p1155
aVAdded plugin for video embedding. Also post about the PD 1.1.0 update & PAX sale.
p1156
aVA lot of code changes
p1157
aVTesting ItemLabelController.java
p1158
aVSetting stuff up
p1159
aVflopalyzer
p1160
aVFixed utterly broken code so I now no longer render faces on chunk boundaries (when they are not needed).
p1161
aVAdded a benchmark file for performance of gen:dict and gen:stream generics.
p1162
aVUpdate readme
p1163
aVbehavior writer done with getmethods and recursivly getting the code of subclasses
p1164
aVRemove for loops and conditions in tests.\u000a\u000aFor loops and if conditions are sub-optimal in tests, for both\u000astability and readability. Removed and replaced with Theory run\u000afeatures.\u000aThough this adds some time to the detailed tests, it's more correct.
p1165
aVremoved TODOs
p1166
aVframeworks/base: support devices with SoftAp that don't require firmware reload\u000a\u000aPartial forward port from ICS.\u000aOriginal Change-Id: If2db6e8ce675c3214ce645231c7a354f41ea0cc6\u000a\u000aChange-Id: Iacb2498ec0f567a0a7c4e0dbf9127b70f09223bd
p1167
aVMaking issue titles more friendly
p1168
aVupdate
p1169
aVMoved feature config from config.mk to config.def.h.
p1170
aVRBTree: simplified isBalanced
p1171
aVEdited some stuff, figured other stuff out
p1172
aVcon xml
p1173
aVAdded plugin for video embedding. Also post about the PD 1.1.0 update & PAX sale.
p1174
aVA lot of code changes
p1175
aVTesting ItemLabelController.java
p1176
aVSetting stuff up
p1177
aVflopalyzer
p1178
aVFixed utterly broken code so I now no longer render faces on chunk boundaries (when they are not needed).
p1179
aVAdded a benchmark file for performance of gen:dict and gen:stream generics.
p1180
aVUpdate readme
p1181
aVbehavior writer done with getmethods and recursivly getting the code of subclasses
p1182
aVRemove for loops and conditions in tests.\u000a\u000aFor loops and if conditions are sub-optimal in tests, for both\u000astability and readability. Removed and replaced with Theory run\u000afeatures.\u000aThough this adds some time to the detailed tests, it's more correct.
p1183
aVremoved TODOs
p1184
aVframeworks/base: support devices with SoftAp that don't require firmware reload\u000a\u000aPartial forward port from ICS.\u000aOriginal Change-Id: If2db6e8ce675c3214ce645231c7a354f41ea0cc6\u000a\u000aChange-Id: Iacb2498ec0f567a0a7c4e0dbf9127b70f09223bd
p1185
aVMaking issue titles more friendly
p1186
aVupdate
p1187
aVMoved feature config from config.mk to config.def.h.
p1188
aVRBTree: simplified isBalanced
p1189
aVEdited some stuff, figured other stuff out
p1190
aVcon xml
p1191
aVAdded plugin for video embedding. Also post about the PD 1.1.0 update & PAX sale.
p1192
aVA lot of code changes
p1193
aVTesting ItemLabelController.java
p1194
aVSetting stuff up
p1195
aVflopalyzer
p1196
aVFixed utterly broken code so I now no longer render faces on chunk boundaries (when they are not needed).
p1197
aVAdded a benchmark file for performance of gen:dict and gen:stream generics.
p1198
aVUpdate readme
p1199
aVbehavior writer done with getmethods and recursivly getting the code of subclasses
p1200
aVRemove for loops and conditions in tests.\u000a\u000aFor loops and if conditions are sub-optimal in tests, for both\u000astability and readability. Removed and replaced with Theory run\u000afeatures.\u000aThough this adds some time to the detailed tests, it's more correct.
p1201
aVremoved TODOs
p1202
aVframeworks/base: support devices with SoftAp that don't require firmware reload\u000a\u000aPartial forward port from ICS.\u000aOriginal Change-Id: If2db6e8ce675c3214ce645231c7a354f41ea0cc6\u000a\u000aChange-Id: Iacb2498ec0f567a0a7c4e0dbf9127b70f09223bd
p1203
aVactualiza composer.lock
p1204
aVMaking issue titles more friendly
p1205
aVupdate
p1206
aVMoved feature config from config.mk to config.def.h.
p1207
aVRBTree: simplified isBalanced
p1208
aVEdited some stuff, figured other stuff out
p1209
aVcon xml
p1210
aVAdded plugin for video embedding. Also post about the PD 1.1.0 update & PAX sale.
p1211
aVA lot of code changes
p1212
aVTesting ItemLabelController.java
p1213
aVSetting stuff up
p1214
aVflopalyzer
p1215
aVFixed utterly broken code so I now no longer render faces on chunk boundaries (when they are not needed).
p1216
aVAdded a benchmark file for performance of gen:dict and gen:stream generics.
p1217
aVUpdate readme
p1218
aVbehavior writer done with getmethods and recursivly getting the code of subclasses
p1219
aVRemove for loops and conditions in tests.\u000a\u000aFor loops and if conditions are sub-optimal in tests, for both\u000astability and readability. Removed and replaced with Theory run\u000afeatures.\u000aThough this adds some time to the detailed tests, it's more correct.
p1220
aVremoved TODOs
p1221
aVte
p1222
aVactualiza composer.lock
p1223
aVMaking issue titles more friendly
p1224
aVupdate
p1225
aVMoved feature config from config.mk to config.def.h.
p1226
aVRBTree: simplified isBalanced
p1227
aVEdited some stuff, figured other stuff out
p1228
aVcon xml
p1229
aVAdded plugin for video embedding. Also post about the PD 1.1.0 update & PAX sale.
p1230
aVA lot of code changes
p1231
aVTesting ItemLabelController.java
p1232
aVSetting stuff up
p1233
aVflopalyzer
p1234
aVFixed utterly broken code so I now no longer render faces on chunk boundaries (when they are not needed).
p1235
aVAdded a benchmark file for performance of gen:dict and gen:stream generics.
p1236
aVUpdate readme
p1237
aVbehavior writer done with getmethods and recursivly getting the code of subclasses
p1238
aVRemove for loops and conditions in tests.\u000a\u000aFor loops and if conditions are sub-optimal in tests, for both\u000astability and readability. Removed and replaced with Theory run\u000afeatures.\u000aThough this adds some time to the detailed tests, it's more correct.
p1239
aVremoved TODOs
p1240
aVUpdate main.vb
p1241
aVmodified index
p1242
aVte
p1243
aVactualiza composer.lock
p1244
aVMaking issue titles more friendly
p1245
aVupdate
p1246
aVMoved feature config from config.mk to config.def.h.
p1247
aVRBTree: simplified isBalanced
p1248
aVEdited some stuff, figured other stuff out
p1249
aVcon xml
p1250
aVAdded plugin for video embedding. Also post about the PD 1.1.0 update & PAX sale.
p1251
aVA lot of code changes
p1252
aVTesting ItemLabelController.java
p1253
aVSetting stuff up
p1254
aVflopalyzer
p1255
aVFixed utterly broken code so I now no longer render faces on chunk boundaries (when they are not needed).
p1256
aVAdded a benchmark file for performance of gen:dict and gen:stream generics.
p1257
aVUpdate readme
p1258
aVbehavior writer done with getmethods and recursivly getting the code of subclasses
p1259
aVUpdate main.vb
p1260
aVmodified index
p1261
aVte
p1262
aVactualiza composer.lock
p1263
aVMaking issue titles more friendly
p1264
aVupdate
p1265
aVMoved feature config from config.mk to config.def.h.
p1266
aVRBTree: simplified isBalanced
p1267
aVEdited some stuff, figured other stuff out
p1268
aVcon xml
p1269
aVAdded plugin for video embedding. Also post about the PD 1.1.0 update & PAX sale.
p1270
aVA lot of code changes
p1271
aVTesting ItemLabelController.java
p1272
aVSetting stuff up
p1273
aVflopalyzer
p1274
aVFixed utterly broken code so I now no longer render faces on chunk boundaries (when they are not needed).
p1275
aVAdded a benchmark file for performance of gen:dict and gen:stream generics.
p1276
aVUpdate readme
p1277
aVbehavior writer done with getmethods and recursivly getting the code of subclasses
p1278
aVUpdate main.vb
p1279
aVmodified index
p1280
aVte
p1281
aVactualiza composer.lock
p1282
aVMaking issue titles more friendly
p1283
aVupdate
p1284
aVMoved feature config from config.mk to config.def.h.
p1285
aVRBTree: simplified isBalanced
p1286
aVEdited some stuff, figured other stuff out
p1287
aVcon xml
p1288
aVAdded plugin for video embedding. Also post about the PD 1.1.0 update & PAX sale.
p1289
aVA lot of code changes
p1290
aVTesting ItemLabelController.java
p1291
aVSetting stuff up
p1292
aVflopalyzer
p1293
aVFixed utterly broken code so I now no longer render faces on chunk boundaries (when they are not needed).
p1294
aVAdded a benchmark file for performance of gen:dict and gen:stream generics.
p1295
aVUpdate readme
p1296
aVbehavior writer done with getmethods and recursivly getting the code of subclasses
p1297
aVUpdate main.vb
p1298
aVmodified index
p1299
aVte
p1300
aVactualiza composer.lock
p1301
aVMaking issue titles more friendly
p1302
aVupdate
p1303
aVMoved feature config from config.mk to config.def.h.
p1304
aVRBTree: simplified isBalanced
p1305
aVEdited some stuff, figured other stuff out
p1306
aVcon xml
p1307
aVAdded plugin for video embedding. Also post about the PD 1.1.0 update & PAX sale.
p1308
aVA lot of code changes
p1309
aVTesting ItemLabelController.java
p1310
aVSetting stuff up
p1311
aVflopalyzer
p1312
aVFixed utterly broken code so I now no longer render faces on chunk boundaries (when they are not needed).
p1313
aVAdded a benchmark file for performance of gen:dict and gen:stream generics.
p1314
aVUpdate readme
p1315
aVbehavior writer done with getmethods and recursivly getting the code of subclasses
p1316
aVUpdate main.vb
p1317
aVmodified index
p1318
aVte
p1319
aVactualiza composer.lock
p1320
aVMaking issue titles more friendly
p1321
aVupdate
p1322
aVMoved feature config from config.mk to config.def.h.
p1323
aVRBTree: simplified isBalanced
p1324
aVEdited some stuff, figured other stuff out
p1325
aVcon xml
p1326
aVAdded plugin for video embedding. Also post about the PD 1.1.0 update & PAX sale.
p1327
aVA lot of code changes
p1328
aVTesting ItemLabelController.java
p1329
aVSetting stuff up
p1330
aVflopalyzer
p1331
aVFixed utterly broken code so I now no longer render faces on chunk boundaries (when they are not needed).
p1332
aVAdded a benchmark file for performance of gen:dict and gen:stream generics.
p1333
aVUpdate readme
p1334
aVbehavior writer done with getmethods and recursivly getting the code of subclasses
p1335
aVUpdate main.vb
p1336
aVmodified index
p1337
aVte
p1338
aVactualiza composer.lock
p1339
aVMaking issue titles more friendly
p1340
aVupdate
p1341
aVMoved feature config from config.mk to config.def.h.
p1342
aVRBTree: simplified isBalanced
p1343
aVEdited some stuff, figured other stuff out
p1344
aVcon xml
p1345
aVAdded plugin for video embedding. Also post about the PD 1.1.0 update & PAX sale.
p1346
aVA lot of code changes
p1347
aVTesting ItemLabelController.java
p1348
aVSetting stuff up
p1349
aVflopalyzer
p1350
aVFixed utterly broken code so I now no longer render faces on chunk boundaries (when they are not needed).
p1351
aVAdded a benchmark file for performance of gen:dict and gen:stream generics.
p1352
aVUpdate readme
p1353
aVbehavior writer done with getmethods and recursivly getting the code of subclasses
p1354
aVUpdate main.vb
p1355
aVmodified index
p1356
aVte
p1357
aVactualiza composer.lock
p1358
aVMaking issue titles more friendly
p1359
aVupdate
p1360
aVMoved feature config from config.mk to config.def.h.
p1361
aVRBTree: simplified isBalanced
p1362
aVEdited some stuff, figured other stuff out
p1363
aVcon xml
p1364
aVAdded plugin for video embedding. Also post about the PD 1.1.0 update & PAX sale.
p1365
aVA lot of code changes
p1366
aVTesting ItemLabelController.java
p1367
aVSetting stuff up
p1368
aVflopalyzer
p1369
aVFixed utterly broken code so I now no longer render faces on chunk boundaries (when they are not needed).
p1370
aVAdded a benchmark file for performance of gen:dict and gen:stream generics.
p1371
aVUpdate readme
p1372
aVbehavior writer done with getmethods and recursivly getting the code of subclasses
p1373
aVUpdate main.vb
p1374
aVmodified index
p1375
aVte
p1376
aVactualiza composer.lock
p1377
aVMaking issue titles more friendly
p1378
aVupdate
p1379
aVMoved feature config from config.mk to config.def.h.
p1380
aVRBTree: simplified isBalanced
p1381
aVEdited some stuff, figured other stuff out
p1382
aVcon xml
p1383
aVAdded plugin for video embedding. Also post about the PD 1.1.0 update & PAX sale.
p1384
aVA lot of code changes
p1385
aVTesting ItemLabelController.java
p1386
aVSetting stuff up
p1387
aVflopalyzer
p1388
aVFixed utterly broken code so I now no longer render faces on chunk boundaries (when they are not needed).
p1389
aVAdded a benchmark file for performance of gen:dict and gen:stream generics.
p1390
aVUpdate readme
p1391
aVbehavior writer done with getmethods and recursivly getting the code of subclasses
p1392
aVUpdate main.vb
p1393
aVmodified index
p1394
aVte
p1395
aVactualiza composer.lock
p1396
aVMaking issue titles more friendly
p1397
aVupdate
p1398
aVMoved feature config from config.mk to config.def.h.
p1399
aVRBTree: simplified isBalanced
p1400
aVEdited some stuff, figured other stuff out
p1401
aVcon xml
p1402
aVAdded plugin for video embedding. Also post about the PD 1.1.0 update & PAX sale.
p1403
aVA lot of code changes
p1404
aVTesting ItemLabelController.java
p1405
aVSetting stuff up
p1406
aVflopalyzer
p1407
aVFixed utterly broken code so I now no longer render faces on chunk boundaries (when they are not needed).
p1408
aVAdded a benchmark file for performance of gen:dict and gen:stream generics.
p1409
aVUpdate readme
p1410
aVbehavior writer done with getmethods and recursivly getting the code of subclasses
p1411
aVUpdate main.vb
p1412
aVmodified index
p1413
aVte
p1414
aVactualiza composer.lock
p1415
aVMaking issue titles more friendly
p1416
aVupdate
p1417
aVMoved feature config from config.mk to config.def.h.
p1418
aVRBTree: simplified isBalanced
p1419
aVEdited some stuff, figured other stuff out
p1420
aVcon xml
p1421
aVAdded plugin for video embedding. Also post about the PD 1.1.0 update & PAX sale.
p1422
aVA lot of code changes
p1423
aVTesting ItemLabelController.java
p1424
aVSetting stuff up
p1425
aVflopalyzer
p1426
aVFixed utterly broken code so I now no longer render faces on chunk boundaries (when they are not needed).
p1427
aVAdded a benchmark file for performance of gen:dict and gen:stream generics.
p1428
aVUpdate readme
p1429
aVbehavior writer done with getmethods and recursivly getting the code of subclasses
p1430
aVUpdate main.vb
p1431
aVmodified index
p1432
aVte
p1433
aVactualiza composer.lock
p1434
aVMaking issue titles more friendly
p1435
aVupdate
p1436
aVMoved feature config from config.mk to config.def.h.
p1437
aVRBTree: simplified isBalanced
p1438
aVEdited some stuff, figured other stuff out
p1439
aVcon xml
p1440
aVAdded plugin for video embedding. Also post about the PD 1.1.0 update & PAX sale.
p1441
aVA lot of code changes
p1442
aVTesting ItemLabelController.java
p1443
aVSetting stuff up
p1444
aVflopalyzer
p1445
aVFixed utterly broken code so I now no longer render faces on chunk boundaries (when they are not needed).
p1446
aVAdded a benchmark file for performance of gen:dict and gen:stream generics.
p1447
aVUpdate readme
p1448
aVbehavior writer done with getmethods and recursivly getting the code of subclasses
p1449
aVUpdate main.vb
p1450
aVmodified index
p1451
aVte
p1452
aVactualiza composer.lock
p1453
aVMaking issue titles more friendly
p1454
aVupdate
p1455
aVMoved feature config from config.mk to config.def.h.
p1456
aVRBTree: simplified isBalanced
p1457
aVEdited some stuff, figured other stuff out
p1458
aVcon xml
p1459
aVAdded plugin for video embedding. Also post about the PD 1.1.0 update & PAX sale.
p1460
aVA lot of code changes
p1461
aVTesting ItemLabelController.java
p1462
aVSetting stuff up
p1463
aVflopalyzer
p1464
aVFixed utterly broken code so I now no longer render faces on chunk boundaries (when they are not needed).
p1465
aVAdded a benchmark file for performance of gen:dict and gen:stream generics.
p1466
aVUpdate readme
p1467
aVbehavior writer done with getmethods and recursivly getting the code of subclasses
p1468
aVUpdate main.vb
p1469
aVmodified index
p1470
aVte
p1471
aVactualiza composer.lock
p1472
aVMaking issue titles more friendly
p1473
aVupdate
p1474
aVMoved feature config from config.mk to config.def.h.
p1475
aVRBTree: simplified isBalanced
p1476
aVEdited some stuff, figured other stuff out
p1477
aVcon xml
p1478
aVAdded plugin for video embedding. Also post about the PD 1.1.0 update & PAX sale.
p1479
aVA lot of code changes
p1480
aVTesting ItemLabelController.java
p1481
aVSetting stuff up
p1482
aVflopalyzer
p1483
aVFixed utterly broken code so I now no longer render faces on chunk boundaries (when they are not needed).
p1484
aVAdded a benchmark file for performance of gen:dict and gen:stream generics.
p1485
aVUpdate readme
p1486
aVUpdate main.vb
p1487
aVmodified index
p1488
aVte
p1489
aVactualiza composer.lock
p1490
aVMaking issue titles more friendly
p1491
aVupdate
p1492
aVMoved feature config from config.mk to config.def.h.
p1493
aVRBTree: simplified isBalanced
p1494
aVEdited some stuff, figured other stuff out
p1495
aVcon xml
p1496
aVAdded plugin for video embedding. Also post about the PD 1.1.0 update & PAX sale.
p1497
aVA lot of code changes
p1498
aVTesting ItemLabelController.java
p1499
aVSetting stuff up
p1500
aVflopalyzer
p1501
aVFixed utterly broken code so I now no longer render faces on chunk boundaries (when they are not needed).
p1502
aVAdded a benchmark file for performance of gen:dict and gen:stream generics.
p1503
aVUpdate readme
p1504
aVUpdate main.vb
p1505
aVmodified index
p1506
aVte
p1507
aVactualiza composer.lock
p1508
aVMaking issue titles more friendly
p1509
aVupdate
p1510
aVMoved feature config from config.mk to config.def.h.
p1511
aVRBTree: simplified isBalanced
p1512
aVEdited some stuff, figured other stuff out
p1513
aVcon xml
p1514
aVAdded plugin for video embedding. Also post about the PD 1.1.0 update & PAX sale.
p1515
aVA lot of code changes
p1516
aVTesting ItemLabelController.java
p1517
aVSetting stuff up
p1518
aVflopalyzer
p1519
aVFixed utterly broken code so I now no longer render faces on chunk boundaries (when they are not needed).
p1520
aVAdded a benchmark file for performance of gen:dict and gen:stream generics.
p1521
aVUpdate readme
p1522
aVUpdate main.vb
p1523
aVmodified index
p1524
aVte
p1525
aVactualiza composer.lock
p1526
aVMaking issue titles more friendly
p1527
aVupdate
p1528
aVMoved feature config from config.mk to config.def.h.
p1529
aVRBTree: simplified isBalanced
p1530
aVEdited some stuff, figured other stuff out
p1531
aVcon xml
p1532
aVAdded plugin for video embedding. Also post about the PD 1.1.0 update & PAX sale.
p1533
aVA lot of code changes
p1534
aVTesting ItemLabelController.java
p1535
aVSetting stuff up
p1536
aVflopalyzer
p1537
aVFixed utterly broken code so I now no longer render faces on chunk boundaries (when they are not needed).
p1538
aVAdded a benchmark file for performance of gen:dict and gen:stream generics.
p1539
aVUpdate readme
p1540
aVUpdate main.vb
p1541
aVmodified index
p1542
aVte
p1543
aVactualiza composer.lock
p1544
aVMaking issue titles more friendly
p1545
aVupdate
p1546
aVMoved feature config from config.mk to config.def.h.
p1547
aVRBTree: simplified isBalanced
p1548
aVEdited some stuff, figured other stuff out
p1549
aVcon xml
p1550
aVAdded plugin for video embedding. Also post about the PD 1.1.0 update & PAX sale.
p1551
aVA lot of code changes
p1552
aVTesting ItemLabelController.java
p1553
aVSetting stuff up
p1554
aVflopalyzer
p1555
aVFixed utterly broken code so I now no longer render faces on chunk boundaries (when they are not needed).
p1556
aVAdded a benchmark file for performance of gen:dict and gen:stream generics.
p1557
aVUpdate readme
p1558
aVUpdate main.vb
p1559
aVmodified index
p1560
aVte
p1561
aVactualiza composer.lock
p1562
aVMaking issue titles more friendly
p1563
aVupdate
p1564
aVMoved feature config from config.mk to config.def.h.
p1565
aVRBTree: simplified isBalanced
p1566
aVEdited some stuff, figured other stuff out
p1567
aVcon xml
p1568
aVAdded plugin for video embedding. Also post about the PD 1.1.0 update & PAX sale.
p1569
aVA lot of code changes
p1570
aVTesting ItemLabelController.java
p1571
aVSetting stuff up
p1572
aVflopalyzer
p1573
aVFixed utterly broken code so I now no longer render faces on chunk boundaries (when they are not needed).
p1574
aVAdded a benchmark file for performance of gen:dict and gen:stream generics.
p1575
aVUpdate readme
p1576
aVUpdate main.vb
p1577
aVmodified index
p1578
aVte
p1579
aVactualiza composer.lock
p1580
aVMaking issue titles more friendly
p1581
aVupdate
p1582
aVMoved feature config from config.mk to config.def.h.
p1583
aVRBTree: simplified isBalanced
p1584
aVEdited some stuff, figured other stuff out
p1585
aVcon xml
p1586
aVAdded plugin for video embedding. Also post about the PD 1.1.0 update & PAX sale.
p1587
aVA lot of code changes
p1588
aVTesting ItemLabelController.java
p1589
aVSetting stuff up
p1590
aVflopalyzer
p1591
aVFixed utterly broken code so I now no longer render faces on chunk boundaries (when they are not needed).
p1592
aVAdded a benchmark file for performance of gen:dict and gen:stream generics.
p1593
aVUpdate readme
p1594
aVfirst test passes
p1595
aVUpdate main.vb
p1596
aVmodified index
p1597
aVte
p1598
aVactualiza composer.lock
p1599
aVMaking issue titles more friendly
p1600
aVupdate
p1601
aVMoved feature config from config.mk to config.def.h.
p1602
aVRBTree: simplified isBalanced
p1603
aVEdited some stuff, figured other stuff out
p1604
aVcon xml
p1605
aVAdded plugin for video embedding. Also post about the PD 1.1.0 update & PAX sale.
p1606
aVA lot of code changes
p1607
aVTesting ItemLabelController.java
p1608
aVSetting stuff up
p1609
aVflopalyzer
p1610
aVFixed utterly broken code so I now no longer render faces on chunk boundaries (when they are not needed).
p1611
aVAdded a benchmark file for performance of gen:dict and gen:stream generics.
p1612
aVfirst test passes
p1613
aVUpdate main.vb
p1614
aVmodified index
p1615
aVte
p1616
aVactualiza composer.lock
p1617
aVMaking issue titles more friendly
p1618
aVupdate
p1619
aVMoved feature config from config.mk to config.def.h.
p1620
aVRBTree: simplified isBalanced
p1621
aVEdited some stuff, figured other stuff out
p1622
aVcon xml
p1623
aVAdded plugin for video embedding. Also post about the PD 1.1.0 update & PAX sale.
p1624
aVA lot of code changes
p1625
aVTesting ItemLabelController.java
p1626
aVSetting stuff up
p1627
aVflopalyzer
p1628
aVFixed utterly broken code so I now no longer render faces on chunk boundaries (when they are not needed).
p1629
aVAdded a benchmark file for performance of gen:dict and gen:stream generics.
p1630
aVfirst test passes
p1631
aVUpdate main.vb
p1632
aVmodified index
p1633
aVte
p1634
aVactualiza composer.lock
p1635
aVMaking issue titles more friendly
p1636
aVupdate
p1637
aVMoved feature config from config.mk to config.def.h.
p1638
aVRBTree: simplified isBalanced
p1639
aVEdited some stuff, figured other stuff out
p1640
aVcon xml
p1641
aVAdded plugin for video embedding. Also post about the PD 1.1.0 update & PAX sale.
p1642
aVA lot of code changes
p1643
aVTesting ItemLabelController.java
p1644
aVSetting stuff up
p1645
aVflopalyzer
p1646
aVFixed utterly broken code so I now no longer render faces on chunk boundaries (when they are not needed).
p1647
aVAdded a benchmark file for performance of gen:dict and gen:stream generics.
p1648
aVCreate script.js
p1649
aVfirst test passes
p1650
aVUpdate main.vb
p1651
aVmodified index
p1652
aVte
p1653
aVactualiza composer.lock
p1654
aVMaking issue titles more friendly
p1655
aVupdate
p1656
aVMoved feature config from config.mk to config.def.h.
p1657
aVRBTree: simplified isBalanced
p1658
aVEdited some stuff, figured other stuff out
p1659
aVcon xml
p1660
aVAdded plugin for video embedding. Also post about the PD 1.1.0 update & PAX sale.
p1661
aVA lot of code changes
p1662
aVTesting ItemLabelController.java
p1663
aVSetting stuff up
p1664
aVflopalyzer
p1665
aVFixed utterly broken code so I now no longer render faces on chunk boundaries (when they are not needed).
p1666
aVcorrected typo in README
p1667
aVCreate script.js
p1668
aVfirst test passes
p1669
aVUpdate main.vb
p1670
aVmodified index
p1671
aVte
p1672
aVactualiza composer.lock
p1673
aVMaking issue titles more friendly
p1674
aVupdate
p1675
aVMoved feature config from config.mk to config.def.h.
p1676
aVRBTree: simplified isBalanced
p1677
aVEdited some stuff, figured other stuff out
p1678
aVcon xml
p1679
aVAdded plugin for video embedding. Also post about the PD 1.1.0 update & PAX sale.
p1680
aVA lot of code changes
p1681
aVTesting ItemLabelController.java
p1682
aVSetting stuff up
p1683
aVflopalyzer
p1684
aVFixed utterly broken code so I now no longer render faces on chunk boundaries (when they are not needed).
p1685
aVcorrected typo in README
p1686
aVCreate script.js
p1687
aVfirst test passes
p1688
aVUpdate main.vb
p1689
aVmodified index
p1690
aVte
p1691
aVactualiza composer.lock
p1692
aVMaking issue titles more friendly
p1693
aVupdate
p1694
aVMoved feature config from config.mk to config.def.h.
p1695
aVRBTree: simplified isBalanced
p1696
aVEdited some stuff, figured other stuff out
p1697
aVcon xml
p1698
aVAdded plugin for video embedding. Also post about the PD 1.1.0 update & PAX sale.
p1699
aVA lot of code changes
p1700
aVTesting ItemLabelController.java
p1701
aVSetting stuff up
p1702
aVflopalyzer
p1703
aVFixed utterly broken code so I now no longer render faces on chunk boundaries (when they are not needed).
p1704
a.